; Function Attrs: mustprogress uwtable
define noundef ptr @_ZN6icu_758TimeZone18detectHostTimeZoneEv() local_unnamed_addr #0 align 2 personality ptr @__gxx_personality_v0 {
invoke.cont:
  %ec.i = alloca i32, align 4
  %hostStrID = alloca %"class.icu_75::UnicodeString", align 8
  %ref.tmp = alloca %"class.icu_75::UnicodeString", align 8
  %agg.tmp = alloca %"class.icu_75::ConstChar16Ptr", align 8
  tail call void @uprv_tzset_75()
  tail call void @uprv_tzname_clear_cache_75()
  %call = tail call ptr @uprv_tzname_75(i32 noundef 0)
  %call1 = tail call i32 @uprv_timezone_75()
  %mul = mul nsw i32 %call1, -1000
  call void @_ZN6icu_7513UnicodeStringC1EPKciNS0_10EInvariantE(ptr noundef nonnull align 8 dereferenceable(64) %hostStrID, ptr noundef %call, i32 noundef -1, i32 noundef 0)
  %fUnion.i.i = getelementptr inbounds i8, ptr %hostStrID, i64 8
  %0 = load i16, ptr %fUnion.i.i, align 8
  %cmp.i.i = icmp slt i16 %0, 0
  %1 = ashr i16 %0, 5
  %shr.i.i = sext i16 %1 to i32
  %fLength.i = getelementptr inbounds i8, ptr %hostStrID, i64 12
  %2 = load i32, ptr %fLength.i, align 4
  %cond.i = select i1 %cmp.i.i, i32 %2, i32 %shr.i.i
  %cmp.not = icmp eq i32 %cond.i, 0
  br i1 %cmp.not, label %if.then, label %if.end

if.then:                                          ; preds = %invoke.cont
  store ptr @_ZL15UNKNOWN_ZONE_ID, ptr %agg.tmp, align 8
  invoke void @_ZN6icu_7513UnicodeStringC1EaNS_14ConstChar16PtrEi(ptr noundef nonnull align 8 dereferenceable(64) %ref.tmp, i8 noundef signext 1, ptr noundef nonnull %agg.tmp, i32 noundef 11)
          to label %invoke.cont5 unwind label %lpad4

invoke.cont5:                                     ; preds = %if.then
  %call6 = call noundef nonnull align 8 dereferenceable(64) ptr @_ZN6icu_7513UnicodeStringaSEOS0_(ptr noundef nonnull align 8 dereferenceable(64) %hostStrID, ptr noundef nonnull align 8 dereferenceable(64) %ref.tmp) #18
  call void @_ZN6icu_7513UnicodeStringD1Ev(ptr noundef nonnull align 8 dereferenceable(64) %ref.tmp) #18
  %3 = load ptr, ptr %agg.tmp, align 8
  call void asm sideeffect "", "rm,~{memory},~{dirflag},~{fpsr},~{flags}"(ptr %3) #18, !srcloc !4
  br label %if.end

lpad:                                             ; preds = %.noexc, %if.then2.i.i, %if.end.i.i, %if.end, %invoke.cont32, %land.lhs.true
  %4 = landingpad { ptr, i32 }
          cleanup
  br label %ehcleanup

lpad4:                                            ; preds = %if.then
  %5 = landingpad { ptr, i32 }
          cleanup
  %6 = load ptr, ptr %agg.tmp, align 8
  call void asm sideeffect "", "rm,~{memory},~{dirflag},~{fpsr},~{flags}"(ptr %6) #18, !srcloc !4
  br label %ehcleanup

if.end:                                           ; preds = %invoke.cont5, %invoke.cont
  call void @llvm.lifetime.start.p0(i64 4, ptr nonnull %ec.i)
  store i32 0, ptr %ec.i, align 4
  %call.i11 = invoke fastcc noundef ptr @_ZN6icu_7512_GLOBAL__N_120createSystemTimeZoneERKNS_13UnicodeStringER10UErrorCode(ptr noundef nonnull align 8 dereferenceable(64) %hostStrID, ptr noundef nonnull align 4 dereferenceable(4) %ec.i)
          to label %invoke.cont9 unwind label %lpad

invoke.cont9:                                     ; preds = %if.end
  call void @llvm.lifetime.end.p0(i64 4, ptr nonnull %ec.i)
  %7 = load i16, ptr %fUnion.i.i, align 8
  %cmp.i.i13 = icmp slt i16 %7, 0
  %8 = ashr i16 %7, 5
  %shr.i.i14 = sext i16 %8 to i32
  %9 = load i32, ptr %fLength.i, align 4
  %cond.i16 = select i1 %cmp.i.i13, i32 %9, i32 %shr.i.i14
  %cmp11.not = icmp eq ptr %call.i11, null
  br i1 %cmp11.not, label %if.end22, label %land.lhs.true

land.lhs.true:                                    ; preds = %invoke.cont9
  %vtable = load ptr, ptr %call.i11, align 8
  %vfn = getelementptr inbounds i8, ptr %vtable, i64 64
  %10 = load ptr, ptr %vfn, align 8
  %call13 = invoke noundef i32 %10(ptr noundef nonnull align 8 dereferenceable(72) %call.i11)
          to label %invoke.cont12 unwind label %lpad

invoke.cont12:                                    ; preds = %land.lhs.true
  %cmp14 = icmp ne i32 %mul, %call13
  %11 = add i32 %cond.i16, -3
  %12 = icmp ult i32 %11, 2
  %or.cond1 = and i1 %12, %cmp14
  br i1 %or.cond1, label %delete.notnull, label %if.end38

delete.notnull:                                   ; preds = %invoke.cont12
  %vtable20 = load ptr, ptr %call.i11, align 8
  %vfn21 = getelementptr inbounds i8, ptr %vtable20, i64 8
  %13 = load ptr, ptr %vfn21, align 8
  call void %13(ptr noundef nonnull align 8 dereferenceable(72) %call.i11) #18
  br label %if.end22

if.end22:                                         ; preds = %delete.notnull, %invoke.cont9
  br i1 %cmp.not, label %if.then31, label %if.then25

if.then25:                                        ; preds = %if.end22
  %call26 = call noundef ptr @_ZN6icu_757UMemorynwEm(i64 noundef 160) #18
  %new.isnull = icmp eq ptr %call26, null
  br i1 %new.isnull, label %if.then31, label %new.notnull

new.notnull:                                      ; preds = %if.then25
  invoke void @_ZN6icu_7514SimpleTimeZoneC1EiRKNS_13UnicodeStringE(ptr noundef nonnull align 8 dereferenceable(160) %call26, i32 noundef %mul, ptr noundef nonnull align 8 dereferenceable(64) %hostStrID)
          to label %if.end38 unwind label %lpad27

lpad27:                                           ; preds = %new.notnull
  %14 = landingpad { ptr, i32 }
          cleanup
  call void @_ZN6icu_757UMemorydlEPv(ptr noundef nonnull %call26) #18
  br label %ehcleanup

if.then31:                                        ; preds = %if.end22, %if.then25
  %15 = load atomic i32, ptr @_ZL20gStaticZonesInitOnce acquire, align 4
  %cmp.i.i17 = icmp eq i32 %15, 2
  br i1 %cmp.i.i17, label %invoke.cont32, label %if.end.i.i

if.end.i.i:                                       ; preds = %if.then31
  %call1.i.i18 = invoke noundef signext i8 @_ZN6icu_7520umtx_initImplPreInitERNS_9UInitOnceE(ptr noundef nonnull align 4 dereferenceable(8) @_ZL20gStaticZonesInitOnce)
          to label %call1.i.i.noexc unwind label %lpad

call1.i.i.noexc:                                  ; preds = %if.end.i.i
  %tobool.not.i.i = icmp eq i8 %call1.i.i18, 0
  br i1 %tobool.not.i.i, label %invoke.cont32, label %if.then2.i.i

if.then2.i.i:                                     ; preds = %call1.i.i.noexc
  invoke fastcc void @_ZN6icu_7512_GLOBAL__N_119initStaticTimeZonesEv()
          to label %.noexc unwind label %lpad

.noexc:                                           ; preds = %if.then2.i.i
  invoke void @_ZN6icu_7521umtx_initImplPostInitERNS_9UInitOnceE(ptr noundef nonnull align 4 dereferenceable(8) @_ZL20gStaticZonesInitOnce)
          to label %invoke.cont32 unwind label %lpad

invoke.cont32:                                    ; preds = %call1.i.i.noexc, %if.then31, %.noexc
  %vtable34 = load ptr, ptr @_ZL11gRawUNKNOWN, align 8
  %vfn35 = getelementptr inbounds i8, ptr %vtable34, i64 96
  %16 = load ptr, ptr %vfn35, align 8
  %call37 = invoke noundef ptr %16(ptr noundef nonnull align 8 dereferenceable(72) @_ZL11gRawUNKNOWN)
          to label %if.end38 unwind label %lpad

if.end38:                                         ; preds = %invoke.cont12, %new.notnull, %invoke.cont32
  %hostZone.2 = phi ptr [ %call37, %invoke.cont32 ], [ %call26, %new.notnull ], [ %call.i11, %invoke.cont12 ]
  call void @_ZN6icu_7513UnicodeStringD1Ev(ptr noundef nonnull align 8 dereferenceable(64) %hostStrID) #18
  ret ptr %hostZone.2

ehcleanup:                                        ; preds = %lpad27, %lpad4, %lpad
  %.pn = phi { ptr, i32 } [ %4, %lpad ], [ %14, %lpad27 ], [ %5, %lpad4 ]
  call void @_ZN6icu_7513UnicodeStringD1Ev(ptr noundef nonnull align 8 dereferenceable(64) %hostStrID) #18
  resume { ptr, i32 } %.pn
}